target datalayout = "e-m:e-p270:32:32-p271:32:32-p272:64:64-i64:64-i128:128-f80:128-n8:16:32:64-S128"
target triple = "x86_64-pc-linux-gnu"

%"struct.std::atomic.22" = type { %"struct.std::__atomic_base.23" }
%"struct.std::__atomic_base.23" = type { ptr }
%"class.std::basic_string_view" = type { i64, ptr }
%class.anon = type { i8 }
%"class.absl::lts_20240722::log_internal::Voidify" = type { i8 }
%"class.absl::lts_20240722::log_internal::LogMessage" = type { %"class.absl::lts_20240722::base_internal::ErrnoSaver", %"class.std::unique_ptr" }
%"class.absl::lts_20240722::base_internal::ErrnoSaver" = type { i32 }
%"class.std::unique_ptr" = type { %"struct.std::__uniq_ptr_data" }
%"struct.std::__uniq_ptr_data" = type { %"class.std::__uniq_ptr_impl" }
%"class.std::__uniq_ptr_impl" = type { %"class.std::tuple" }
%"class.std::tuple" = type { %"struct.std::_Tuple_impl" }
%"struct.std::_Tuple_impl" = type { %"struct.std::_Head_base.25" }
%"struct.std::_Head_base.25" = type { ptr }
%"class.absl::lts_20240722::log_internal::VLogSite" = type { ptr, %"struct.std::atomic.20", %"struct.std::atomic.22" }
%"struct.std::atomic.20" = type { %"struct.std::__atomic_base.21" }
%"struct.std::__atomic_base.21" = type { i32 }

@.str.1 = private unnamed_addr constant [121 x i8] c"generated/home/dtcxzyw/WorkSpace/Projects/compilers/llvm-opt-benchmark/bench/grpc/grpc/src/core/lib/iomgr/buffer_list.cc\00", align 1
@.str.2 = private unnamed_addr constant [44 x i8] c"Timestamps callback has not been registered\00", align 1
@"_ZZZN9grpc_core12_GLOBAL__N_125DefaultTimestampsCallbackEPvPNS_10TimestampsEN4absl12lts_202407226StatusEENK3$_0clEvE4site" = internal global { ptr, { i32 }, %"struct.std::atomic.22" } { ptr @.str.1, { i32 } { i32 2147483647 }, %"struct.std::atomic.22" zeroinitializer }, align 8

; Function Attrs: mustprogress nounwind uwtable
define linkonce_odr noundef i64 @_ZNSt11char_traitsIcE6lengthEPKc(ptr noundef %0) #8 comdat align 2 {
  %2 = alloca ptr, align 8
  store ptr %0, ptr %2, align 8, !tbaa !84
  %3 = load ptr, ptr %2, align 8, !tbaa !84
  %4 = call i64 @strlen(ptr noundef %3) #3
  ret i64 %4
}

; Function Attrs: noinline noreturn nounwind uwtable
define linkonce_odr hidden void @__clang_call_terminate(ptr noundef %0) #14 comdat {
  %2 = call ptr @__cxa_begin_catch(ptr %0) #3
  call void @_ZSt9terminatev() #23
  unreachable
}

; Function Attrs: mustprogress nounwind uwtable
define linkonce_odr noundef i32 @_ZStanSt12memory_orderSt23__memory_order_modifier(i32 noundef %0, i32 noundef %1) #8 comdat {
  %3 = alloca i32, align 4
  %4 = alloca i32, align 4
  store i32 %0, ptr %3, align 4, !tbaa !174
  store i32 %1, ptr %4, align 4, !tbaa !176
  %5 = load i32, ptr %3, align 4, !tbaa !174
  %6 = load i32, ptr %4, align 4, !tbaa !176
  %7 = and i32 %5, %6
  ret i32 %7
}

; Function Attrs: mustprogress nounwind uwtable
define linkonce_odr void @_ZNSt17basic_string_viewIcSt11char_traitsIcEEC2EPKc(ptr noundef nonnull align 8 dereferenceable(16) %0, ptr noundef nonnull %1) unnamed_addr #8 comdat align 2 personality ptr @__gxx_personality_v0 {
  %3 = alloca ptr, align 8
  %4 = alloca ptr, align 8
  store ptr %0, ptr %3, align 8, !tbaa !97
  store ptr %1, ptr %4, align 8, !tbaa !84
  %5 = load ptr, ptr %3, align 8
  %6 = getelementptr inbounds nuw %"class.std::basic_string_view", ptr %5, i32 0, i32 0
  %7 = load ptr, ptr %4, align 8, !tbaa !84
  %8 = invoke noundef i64 @_ZNSt11char_traitsIcE6lengthEPKc(ptr noundef %7)
          to label %9 unwind label %12

9:                                                ; preds = %2
  store i64 %8, ptr %6, align 8, !tbaa !99
  %10 = getelementptr inbounds nuw %"class.std::basic_string_view", ptr %5, i32 0, i32 1
  %11 = load ptr, ptr %4, align 8, !tbaa !84
  store ptr %11, ptr %10, align 8, !tbaa !101
  ret void

12:                                               ; preds = %2
  %13 = landingpad { ptr, i32 }
          catch ptr null
  %14 = extractvalue { ptr, i32 } %13, 0
  call void @__clang_call_terminate(ptr %14) #23
  unreachable
}

; Function Attrs: alwaysinline mustprogress nounwind uwtable
define linkonce_odr noundef i32 @_ZNKSt13__atomic_baseIiE4loadESt12memory_order(ptr noundef nonnull align 4 dereferenceable(4) %0, i32 noundef %1) #18 comdat align 2 personality ptr @__gxx_personality_v0 {
  %3 = alloca ptr, align 8
  %4 = alloca i32, align 4
  %5 = alloca i32, align 4
  %6 = alloca i32, align 4
  store ptr %0, ptr %3, align 8, !tbaa !172
  store i32 %1, ptr %4, align 4, !tbaa !174
  %7 = load ptr, ptr %3, align 8
  call void @llvm.lifetime.start.p0(i64 4, ptr %5) #3
  %8 = load i32, ptr %4, align 4, !tbaa !174
  %9 = invoke noundef i32 @_ZStanSt12memory_orderSt23__memory_order_modifier(i32 noundef %8, i32 noundef 65535)
          to label %10 unwind label %27

10:                                               ; preds = %2
  store i32 %9, ptr %5, align 4, !tbaa !174
  br label %11

11:                                               ; preds = %10
  br label %12

12:                                               ; preds = %11
  br label %13

13:                                               ; preds = %12
  br label %14

14:                                               ; preds = %13
  br label %15

15:                                               ; preds = %14
  br label %16

16:                                               ; preds = %15
  %17 = getelementptr inbounds nuw %"struct.std::__atomic_base.21", ptr %7, i32 0, i32 0
  %18 = load i32, ptr %4, align 4, !tbaa !174
  switch i32 %18, label %19 [
    i32 1, label %21
    i32 2, label %21
    i32 5, label %23
  ]

19:                                               ; preds = %16
  %20 = load atomic i32, ptr %17 monotonic, align 4
  store i32 %20, ptr %6, align 4
  br label %25

21:                                               ; preds = %16, %16
  %22 = load atomic i32, ptr %17 acquire, align 4
  store i32 %22, ptr %6, align 4
  br label %25

23:                                               ; preds = %16
  %24 = load atomic i32, ptr %17 seq_cst, align 4
  store i32 %24, ptr %6, align 4
  br label %25

25:                                               ; preds = %23, %21, %19
  %26 = load i32, ptr %6, align 4, !tbaa !8
  call void @llvm.lifetime.end.p0(i64 4, ptr %5) #3
  ret i32 %26

27:                                               ; preds = %2
  %28 = landingpad { ptr, i32 }
          catch ptr null
  %29 = extractvalue { ptr, i32 } %28, 0
  call void @__clang_call_terminate(ptr %29) #23
  unreachable
}

; Function Attrs: mustprogress nounwind uwtable
define linkonce_odr void @_ZNKO4absl12lts_2024072212log_internal7VoidifyaaINS1_10LogMessageEEEvRKT_(ptr noundef nonnull align 1 dereferenceable(1) %0, ptr noundef nonnull align 8 dereferenceable(16) %1) #8 comdat align 2 {
  %3 = alloca ptr, align 8
  %4 = alloca ptr, align 8
  store ptr %0, ptr %3, align 8, !tbaa !168
  store ptr %1, ptr %4, align 8, !tbaa !170
  ret void
}

; Function Attrs: mustprogress uwtable
define linkonce_odr noundef nonnull align 8 dereferenceable(16) ptr @_ZN4absl12lts_2024072212log_internal10LogMessagelsILi44EEERS2_RAT__Kc(ptr noundef nonnull align 8 dereferenceable(16) %0, ptr noundef nonnull align 1 dereferenceable(44) %1) #4 comdat align 2 {
  %3 = alloca ptr, align 8
  %4 = alloca ptr, align 8
  %5 = alloca %"class.std::basic_string_view", align 8
  store ptr %0, ptr %3, align 8, !tbaa !170
  store ptr %1, ptr %4, align 8, !tbaa !84
  %6 = load ptr, ptr %3, align 8
  %7 = load ptr, ptr %4, align 8, !tbaa !84
  %8 = getelementptr inbounds [44 x i8], ptr %7, i64 0, i64 0
  call void @_ZNSt17basic_string_viewIcSt11char_traitsIcEEC2EPKc(ptr noundef nonnull align 8 dereferenceable(16) %5, ptr noundef %8) #3
  %9 = getelementptr inbounds nuw { i64, ptr }, ptr %5, i32 0, i32 0
  %10 = load i64, ptr %9, align 8
  %11 = getelementptr inbounds nuw { i64, ptr }, ptr %5, i32 0, i32 1
  %12 = load ptr, ptr %11, align 8
  call void @_ZN4absl12lts_2024072212log_internal10LogMessage19CopyToEncodedBufferILNS2_10StringTypeE0EEEvSt17basic_string_viewIcSt11char_traitsIcEE(ptr noundef nonnull align 8 dereferenceable(16) %6, i64 %10, ptr %12)
  ret ptr %6
}

; Function Attrs: mustprogress nounwind uwtable
define linkonce_odr noundef nonnull align 8 dereferenceable(16) ptr @_ZN4absl12lts_2024072212log_internal10LogMessage14InternalStreamEv(ptr noundef nonnull align 8 dereferenceable(16) %0) #8 comdat align 2 {
  %2 = alloca ptr, align 8
  store ptr %0, ptr %2, align 8, !tbaa !170
  %3 = load ptr, ptr %2, align 8
  ret ptr %3
}

; Function Attrs: alwaysinline mustprogress uwtable
define linkonce_odr noundef zeroext i1 @_ZN4absl12lts_2024072212log_internal8VLogSite9IsEnabledEi(ptr noundef nonnull align 8 dereferenceable(24) %0, i32 noundef %1) #15 comdat align 2 {
  %3 = alloca i1, align 1
  %4 = alloca ptr, align 8
  %5 = alloca i32, align 4
  %6 = alloca i32, align 4
  %7 = alloca i32, align 4
  store ptr %0, ptr %4, align 8, !tbaa !166
  store i32 %1, ptr %5, align 4, !tbaa !8
  %8 = load ptr, ptr %4, align 8
  call void @llvm.lifetime.start.p0(i64 4, ptr %6) #3
  %9 = getelementptr inbounds nuw %"class.absl::lts_20240722::log_internal::VLogSite", ptr %8, i32 0, i32 1
  %10 = call noundef i32 @_ZNKSt13__atomic_baseIiE4loadESt12memory_order(ptr noundef nonnull align 4 dereferenceable(4) %9, i32 noundef 0) #3
  store i32 %10, ptr %6, align 4, !tbaa !8
  %11 = load i32, ptr %5, align 4, !tbaa !8
  %12 = load i32, ptr %6, align 4, !tbaa !8
  %13 = icmp sgt i32 %11, %12
  %14 = zext i1 %13 to i64
  %15 = call i64 @llvm.expect.i64(i64 %14, i64 1)
  %16 = icmp ne i64 %15, 0
  br i1 %16, label %17, label %18

17:                                               ; preds = %2
  store i1 false, ptr %3, align 1
  store i32 1, ptr %7, align 4
  br label %62

18:                                               ; preds = %2
  %19 = load i32, ptr %5, align 4, !tbaa !8
  %20 = call i1 @llvm.is.constant.i32(i32 %19)
  br i1 %20, label %21, label %58

21:                                               ; preds = %18
  %22 = load i32, ptr %5, align 4, !tbaa !8
  %23 = icmp eq i32 %22, 0
  br i1 %23, label %24, label %27

24:                                               ; preds = %21
  %25 = load i32, ptr %6, align 4, !tbaa !8
  %26 = call noundef zeroext i1 @_ZN4absl12lts_2024072212log_internal8VLogSite14SlowIsEnabled0Ei(ptr noundef nonnull align 8 dereferenceable(24) %8, i32 noundef %25)
  store i1 %26, ptr %3, align 1
  store i32 1, ptr %7, align 4
  br label %62

27:                                               ; preds = %21
  %28 = load i32, ptr %5, align 4, !tbaa !8
  %29 = icmp eq i32 %28, 1
  br i1 %29, label %30, label %33

30:                                               ; preds = %27
  %31 = load i32, ptr %6, align 4, !tbaa !8
  %32 = call noundef zeroext i1 @_ZN4absl12lts_2024072212log_internal8VLogSite14SlowIsEnabled1Ei(ptr noundef nonnull align 8 dereferenceable(24) %8, i32 noundef %31)
  store i1 %32, ptr %3, align 1
  store i32 1, ptr %7, align 4
  br label %62

33:                                               ; preds = %27
  %34 = load i32, ptr %5, align 4, !tbaa !8
  %35 = icmp eq i32 %34, 2
  br i1 %35, label %36, label %39

36:                                               ; preds = %33
  %37 = load i32, ptr %6, align 4, !tbaa !8
  %38 = call noundef zeroext i1 @_ZN4absl12lts_2024072212log_internal8VLogSite14SlowIsEnabled2Ei(ptr noundef nonnull align 8 dereferenceable(24) %8, i32 noundef %37)
  store i1 %38, ptr %3, align 1
  store i32 1, ptr %7, align 4
  br label %62

39:                                               ; preds = %33
  %40 = load i32, ptr %5, align 4, !tbaa !8
  %41 = icmp eq i32 %40, 3
  br i1 %41, label %42, label %45

42:                                               ; preds = %39
  %43 = load i32, ptr %6, align 4, !tbaa !8
  %44 = call noundef zeroext i1 @_ZN4absl12lts_2024072212log_internal8VLogSite14SlowIsEnabled3Ei(ptr noundef nonnull align 8 dereferenceable(24) %8, i32 noundef %43)
  store i1 %44, ptr %3, align 1
  store i32 1, ptr %7, align 4
  br label %62

45:                                               ; preds = %39
  %46 = load i32, ptr %5, align 4, !tbaa !8
  %47 = icmp eq i32 %46, 4
  br i1 %47, label %48, label %51

48:                                               ; preds = %45
  %49 = load i32, ptr %6, align 4, !tbaa !8
  %50 = call noundef zeroext i1 @_ZN4absl12lts_2024072212log_internal8VLogSite14SlowIsEnabled4Ei(ptr noundef nonnull align 8 dereferenceable(24) %8, i32 noundef %49)
  store i1 %50, ptr %3, align 1
  store i32 1, ptr %7, align 4
  br label %62

51:                                               ; preds = %45
  %52 = load i32, ptr %5, align 4, !tbaa !8
  %53 = icmp eq i32 %52, 5
  br i1 %53, label %54, label %57

54:                                               ; preds = %51
  %55 = load i32, ptr %6, align 4, !tbaa !8
  %56 = call noundef zeroext i1 @_ZN4absl12lts_2024072212log_internal8VLogSite14SlowIsEnabled5Ei(ptr noundef nonnull align 8 dereferenceable(24) %8, i32 noundef %55)
  store i1 %56, ptr %3, align 1
  store i32 1, ptr %7, align 4
  br label %62

57:                                               ; preds = %51
  br label %58

58:                                               ; preds = %57, %18
  %59 = load i32, ptr %6, align 4, !tbaa !8
  %60 = load i32, ptr %5, align 4, !tbaa !8
  %61 = call noundef zeroext i1 @_ZN4absl12lts_2024072212log_internal8VLogSite13SlowIsEnabledEii(ptr noundef nonnull align 8 dereferenceable(24) %8, i32 noundef %59, i32 noundef %60)
  store i1 %61, ptr %3, align 1
  store i32 1, ptr %7, align 4
  br label %62

62:                                               ; preds = %58, %54, %48, %42, %36, %30, %24, %17
  call void @llvm.lifetime.end.p0(i64 4, ptr %6) #3
  %63 = load i1, ptr %3, align 1
  ret i1 %63
}

; Function Attrs: inlinehint mustprogress nounwind uwtable
define internal noundef ptr @"_ZZN9grpc_core12_GLOBAL__N_125DefaultTimestampsCallbackEPvPNS_10TimestampsEN4absl12lts_202407226StatusEENK3$_0clEv"(ptr noundef nonnull align 1 dereferenceable(1) %0) #11 align 2 {
  %2 = alloca ptr, align 8
  store ptr %0, ptr %2, align 8, !tbaa !17
  ret ptr @"_ZZZN9grpc_core12_GLOBAL__N_125DefaultTimestampsCallbackEPvPNS_10TimestampsEN4absl12lts_202407226StatusEENK3$_0clEvE4site"
}

; Function Attrs: mustprogress uwtable
define internal void @_ZN9grpc_core12_GLOBAL__N_125DefaultTimestampsCallbackEPvPNS_10TimestampsEN4absl12lts_202407226StatusE(ptr noundef %0, ptr noundef %1, ptr noundef %2) #4 personality ptr @__gxx_personality_v0 {
  %4 = alloca ptr, align 8
  %5 = alloca ptr, align 8
  %6 = alloca ptr, align 8
  %7 = alloca i32, align 4
  %8 = alloca %class.anon, align 1
  %9 = alloca %"class.absl::lts_20240722::log_internal::Voidify", align 1
  %10 = alloca %"class.absl::lts_20240722::log_internal::LogMessage", align 8
  %11 = alloca i1, align 1
  %12 = alloca i1, align 1
  %13 = alloca ptr, align 8
  %14 = alloca i32, align 4
  store ptr %0, ptr %4, align 8, !tbaa !17
  store ptr %1, ptr %5, align 8, !tbaa !103
  store ptr %2, ptr %6, align 8, !tbaa !93
  call void @llvm.lifetime.start.p0(i64 4, ptr %7) #3
  store i32 2, ptr %7, align 4, !tbaa !8
  call void @llvm.lifetime.start.p0(i64 1, ptr %8) #3
  %15 = call noundef ptr @"_ZZN9grpc_core12_GLOBAL__N_125DefaultTimestampsCallbackEPvPNS_10TimestampsEN4absl12lts_202407226StatusEENK3$_0clEv"(ptr noundef nonnull align 1 dereferenceable(1) %8)
  %16 = call noundef zeroext i1 @_ZN4absl12lts_2024072212log_internal8VLogSite9IsEnabledEi(ptr noundef nonnull align 8 dereferenceable(24) %15, i32 noundef 2)
  call void @llvm.lifetime.start.p0(i64 1, ptr %9) #3
  store i1 false, ptr %11, align 1
  store i1 false, ptr %12, align 1
  br i1 %16, label %18, label %17

17:                                               ; preds = %3
  br label %26

18:                                               ; preds = %3
  call void @llvm.lifetime.start.p0(i64 16, ptr %10) #3
  store i1 true, ptr %11, align 1
  call void @_ZN4absl12lts_2024072212log_internal10LogMessageC1EPKciNS2_7InfoTagE(ptr noundef nonnull align 8 dereferenceable(16) %10, ptr noundef @.str.1, i32 noundef 45) #24
  store i1 true, ptr %12, align 1
  %19 = invoke noundef nonnull align 8 dereferenceable(16) ptr @_ZN4absl12lts_2024072212log_internal10LogMessage14InternalStreamEv(ptr noundef nonnull align 8 dereferenceable(16) %10)
          to label %20 unwind label %33

20:                                               ; preds = %18
  %21 = invoke noundef nonnull align 8 dereferenceable(16) ptr @_ZN4absl12lts_2024072212log_internal10LogMessage13WithVerbosityEi(ptr noundef nonnull align 8 dereferenceable(16) %19, i32 noundef 2)
          to label %22 unwind label %33

22:                                               ; preds = %20
  %23 = invoke noundef nonnull align 8 dereferenceable(16) ptr @_ZN4absl12lts_2024072212log_internal10LogMessagelsILi44EEERS2_RAT__Kc(ptr noundef nonnull align 8 dereferenceable(16) %21, ptr noundef nonnull align 1 dereferenceable(44) @.str.2)
          to label %24 unwind label %33

24:                                               ; preds = %22
  invoke void @_ZNKO4absl12lts_2024072212log_internal7VoidifyaaINS1_10LogMessageEEEvRKT_(ptr noundef nonnull align 1 dereferenceable(1) %9, ptr noundef nonnull align 8 dereferenceable(16) %23)
          to label %25 unwind label %33

25:                                               ; preds = %24
  br label %26

26:                                               ; preds = %25, %17
  %27 = load i1, ptr %12, align 1
  br i1 %27, label %28, label %29

28:                                               ; preds = %26
  call void @_ZN4absl12lts_2024072212log_internal10LogMessageD1Ev(ptr noundef nonnull align 8 dereferenceable(16) %10) #25
  br label %29

29:                                               ; preds = %28, %26
  %30 = load i1, ptr %11, align 1
  br i1 %30, label %31, label %32

31:                                               ; preds = %29
  call void @llvm.lifetime.end.p0(i64 16, ptr %10) #3
  br label %32

32:                                               ; preds = %31, %29
  call void @llvm.lifetime.end.p0(i64 1, ptr %9) #3
  call void @llvm.lifetime.end.p0(i64 1, ptr %8) #3
  call void @llvm.lifetime.end.p0(i64 4, ptr %7) #3
  ret void

33:                                               ; preds = %24, %22, %20, %18
  %34 = landingpad { ptr, i32 }
          cleanup
  %35 = extractvalue { ptr, i32 } %34, 0
  store ptr %35, ptr %13, align 8
  %36 = extractvalue { ptr, i32 } %34, 1
  store i32 %36, ptr %14, align 4
  %37 = load i1, ptr %12, align 1
  br i1 %37, label %38, label %39

38:                                               ; preds = %33
  call void @_ZN4absl12lts_2024072212log_internal10LogMessageD1Ev(ptr noundef nonnull align 8 dereferenceable(16) %10) #25
  br label %39

39:                                               ; preds = %38, %33
  %40 = load i1, ptr %11, align 1
  br i1 %40, label %41, label %42

41:                                               ; preds = %39
  call void @llvm.lifetime.end.p0(i64 16, ptr %10) #3
  br label %42

42:                                               ; preds = %41, %39
  call void @llvm.lifetime.end.p0(i64 1, ptr %9) #3
  call void @llvm.lifetime.end.p0(i64 1, ptr %8) #3
  call void @llvm.lifetime.end.p0(i64 4, ptr %7) #3
  br label %43

43:                                               ; preds = %42
  %44 = load ptr, ptr %13, align 8
  %45 = load i32, ptr %14, align 4
  %46 = insertvalue { ptr, i32 } poison, ptr %44, 0
  %47 = insertvalue { ptr, i32 } %46, i32 %45, 1
  resume { ptr, i32 } %47
}