; Function Attrs: mustprogress uwtable
define internal void @_ZN9grpc_core12_GLOBAL__N_125DefaultTimestampsCallbackEPvPNS_10TimestampsEN4absl12lts_202407226StatusE(ptr readnone captures(none) %0, ptr readnone captures(none) %1, ptr readnone captures(none) %2) #3 personality ptr @__gxx_personality_v0 {
  %4 = alloca %"class.absl::lts_20240722::log_internal::LogMessage", align 8
  %5 = load atomic i32, ptr getelementptr inbounds nuw (i8, ptr @"_ZZZN9grpc_core12_GLOBAL__N_125DefaultTimestampsCallbackEPvPNS_10TimestampsEN4absl12lts_202407226StatusEENK3$_0clEvE4site", i64 8) monotonic, align 8
  %6 = icmp slt i32 %5, 2
  br i1 %6, label %.critedge6, label %_ZN4absl12lts_2024072212log_internal8VLogSite9IsEnabledEi.exit, !prof !80

_ZN4absl12lts_2024072212log_internal8VLogSite9IsEnabledEi.exit: ; preds = %3
  %7 = tail call noundef zeroext i1 @_ZN4absl12lts_2024072212log_internal8VLogSite14SlowIsEnabled2Ei(ptr noundef nonnull align 8 dereferenceable(24) @"_ZZZN9grpc_core12_GLOBAL__N_125DefaultTimestampsCallbackEPvPNS_10TimestampsEN4absl12lts_202407226StatusEENK3$_0clEvE4site", i32 noundef %5)
  br i1 %7, label %8, label %.critedge6

8:                                                ; preds = %_ZN4absl12lts_2024072212log_internal8VLogSite9IsEnabledEi.exit
  call void @llvm.lifetime.start.p0(i64 16, ptr nonnull %4) #19
  call void @_ZN4absl12lts_2024072212log_internal10LogMessageC1EPKciNS2_7InfoTagE(ptr noundef nonnull align 8 dereferenceable(16) %4, ptr noundef nonnull @.str.1, i32 noundef 45) #22
  %9 = invoke noundef nonnull align 8 dereferenceable(16) ptr @_ZN4absl12lts_2024072212log_internal10LogMessage13WithVerbosityEi(ptr noundef nonnull align 8 dereferenceable(16) %4, i32 noundef 2)
          to label %10 unwind label %11

10:                                               ; preds = %8
  invoke void @_ZN4absl12lts_2024072212log_internal10LogMessage19CopyToEncodedBufferILNS2_10StringTypeE0EEEvSt17basic_string_viewIcSt11char_traitsIcEE(ptr noundef nonnull align 8 dereferenceable(16) %9, i64 43, ptr nonnull @.str.2)
          to label %.critedge unwind label %11

.critedge:                                        ; preds = %10
  call void @_ZN4absl12lts_2024072212log_internal10LogMessageD1Ev(ptr noundef nonnull align 8 dereferenceable(16) %4) #23
  call void @llvm.lifetime.end.p0(i64 16, ptr nonnull %4) #19
  br label %.critedge6

.critedge6:                                       ; preds = %3, %_ZN4absl12lts_2024072212log_internal8VLogSite9IsEnabledEi.exit, %.critedge
  ret void

11:                                               ; preds = %10, %8
  %12 = landingpad { ptr, i32 }
          cleanup
  call void @_ZN4absl12lts_2024072212log_internal10LogMessageD1Ev(ptr noundef nonnull align 8 dereferenceable(16) %4) #23
  call void @llvm.lifetime.end.p0(i64 16, ptr nonnull %4) #19
  resume { ptr, i32 } %12
}